; Function Attrs: mustprogress nounwind uwtable
define void @_ZN3zmq11ws_engine_tD2Ev(ptr noundef nonnull align 8 dereferenceable(25696) %this) unnamed_addr #4 align 2 personality ptr @__gxx_personality_v0 {
entry:
  store ptr getelementptr inbounds ({ [24 x ptr], [11 x ptr] }, ptr @_ZTVN3zmq11ws_engine_tE, i64 0, i32 0, i64 2), ptr %this, align 8
  %add.ptr = getelementptr inbounds i8, ptr %this, i64 16
  store ptr getelementptr inbounds ({ [24 x ptr], [11 x ptr] }, ptr @_ZTVN3zmq11ws_engine_tE, i64 0, i32 1, i64 2), ptr %add.ptr, align 8
  %_close_msg = getelementptr inbounds i8, ptr %this, i64 25632
  %call = invoke noundef i32 @_ZN3zmq5msg_t5closeEv(ptr noundef nonnull align 8 dereferenceable(64) %_close_msg)
          to label %invoke.cont unwind label %terminate.lpad

invoke.cont:                                      ; preds = %entry
  %_path.i = getelementptr inbounds i8, ptr %this, i64 1760
  tail call void @_ZNSt7__cxx1112basic_stringIcSt11char_traitsIcESaIcEED1Ev(ptr noundef nonnull align 8 dereferenceable(32) %_path.i) #19
  %_host.i = getelementptr inbounds i8, ptr %this, i64 1728
  tail call void @_ZNSt7__cxx1112basic_stringIcSt11char_traitsIcESaIcEED1Ev(ptr noundef nonnull align 8 dereferenceable(32) %_host.i) #19
  tail call void @_ZN3zmq20stream_engine_base_tD2Ev(ptr noundef nonnull align 8 dereferenceable(1689) %this) #19
  ret void

terminate.lpad:                                   ; preds = %entry
  %0 = landingpad { ptr, i32 }
          catch ptr null
  %1 = extractvalue { ptr, i32 } %0, 0
  tail call void @__clang_call_terminate(ptr %1) #20
  unreachable
}